; Function Attrs: mustprogress nounwind uwtable
define noundef i32 @_ZN12colvarmodule22set_input_state_bufferERSt6vectorIhSaIhEE(ptr nocapture noundef nonnull align 8 dereferenceable(616) %0, ptr nocapture noundef nonnull align 8 dereferenceable(24) %1) local_unnamed_addr #9 align 2 personality ptr @__gxx_personality_v0 {
  %3 = getelementptr inbounds i8, ptr %0, i64 352
  %4 = load ptr, ptr %3, align 8
  %5 = getelementptr inbounds i8, ptr %0, i64 360
  %6 = getelementptr inbounds i8, ptr %0, i64 368
  %7 = load ptr, ptr %1, align 8
  store ptr %7, ptr %3, align 8
  %8 = getelementptr inbounds i8, ptr %1, i64 8
  %9 = load ptr, ptr %8, align 8
  store ptr %9, ptr %5, align 8
  %10 = getelementptr inbounds i8, ptr %1, i64 16
  %11 = load ptr, ptr %10, align 8
  store ptr %11, ptr %6, align 8
  %.not.i.i.i.i.i = icmp eq ptr %4, null
  tail call void @llvm.memset.p0.i64(ptr noundef nonnull align 8 dereferenceable(24) %1, i8 0, i64 24, i1 false)
  br i1 %.not.i.i.i.i.i, label %_ZNSt6vectorIhSaIhEEaSEOS1_.exit, label %12

12:                                               ; preds = %2
  tail call void @_ZdlPv(ptr noundef nonnull %4) #26
  br label %_ZNSt6vectorIhSaIhEEaSEOS1_.exit

_ZNSt6vectorIhSaIhEEaSEOS1_.exit:                 ; preds = %2, %12
  ret i32 0
}